target datalayout = "e-m:e-p270:32:32-p271:32:32-p272:64:64-i64:64-i128:128-f80:128-n8:16:32:64-S128"
target triple = "x86_64-pc-linux-gnu"

@proto_register_opensafety.ett_oss_udp = internal global [1 x ptr] [ptr @ett_oss_udp_transport], align 8
@.str.204 = private unnamed_addr constant [11 x i8] c"openSAFETY\00", align 1
@.str.205 = private unnamed_addr constant [11 x i8] c"opensafety\00", align 1
@proto_opensafety = internal global i32 0, align 4
@.str.206 = private unnamed_addr constant [20 x i8] c"openSAFETY over UDP\00", align 1
@.str.207 = private unnamed_addr constant [19 x i8] c"openSAFETY ov. UDP\00", align 1
@.str.208 = private unnamed_addr constant [15 x i8] c"opensafety_udp\00", align 1
@proto_oss_udp_transport = internal global i32 0, align 4
@.str.209 = private unnamed_addr constant [16 x i8] c"opensafety.spdo\00", align 1
@.str.210 = private unnamed_addr constant [16 x i8] c"openSAFETY data\00", align 1
@heur_opensafety_spdo_subdissector_list = internal global ptr null, align 8
@opensafety_tap = internal global i32 0, align 4
@.str.211 = private unnamed_addr constant [9 x i8] c"scm_udid\00", align 1
@.str.212 = private unnamed_addr constant [29 x i8] c"SCM UDID (xx:xx:xx:xx:xx:xx)\00", align 1
@.str.213 = private unnamed_addr constant [96 x i8] c"To be able to fully dissect SSDO and SPDO packages, a valid UDID for the SCM has to be provided\00", align 1
@global_scm_udid = internal global ptr @.str.346, align 8
@.str.214 = private unnamed_addr constant [17 x i8] c"scm_udid_autoset\00", align 1
@.str.215 = private unnamed_addr constant [35 x i8] c"Set SCM UDID if detected in stream\00", align 1
@.str.216 = private unnamed_addr constant [105 x i8] c"Automatically assign a detected SCM UDID (by reading SNMT->SNTM_assign_UDID_SCM) and set it for the file\00", align 1
@global_scm_udid_autoset = internal global i8 1, align 1
@.str.217 = private unnamed_addr constant [13 x i8] c"filter_nodes\00", align 1
@.str.218 = private unnamed_addr constant [24 x i8] c"Filter openSAFETY Nodes\00", align 1
@.str.219 = private unnamed_addr constant [65 x i8] c"A comma-separated list of nodes to be filtered during dissection\00", align 1
@global_filter_nodes = internal global ptr @.str.347, align 8
@.str.220 = private unnamed_addr constant [32 x i8] c"filter_show_nodes_in_filterlist\00", align 1
@.str.221 = private unnamed_addr constant [37 x i8] c"Show nodes in filter, hide otherwise\00", align 1
@.str.222 = private unnamed_addr constant [84 x i8] c"If set to true, only nodes in the list will be shown, otherwise they will be hidden\00", align 1
@global_show_only_node_in_filter = internal global i8 1, align 1
@.str.223 = private unnamed_addr constant [17 x i8] c"network_udp_port\00", align 1
@.str.224 = private unnamed_addr constant [26 x i8] c"Port used for Generic UDP\00", align 1
@.str.225 = private unnamed_addr constant [59 x i8] c"Port used by any UDP demo implementation to transport data\00", align 1
@global_network_udp_port = internal global i32 9877, align 4
@.str.226 = private unnamed_addr constant [27 x i8] c"network_udp_port_sercosiii\00", align 1
@.str.227 = private unnamed_addr constant [28 x i8] c"Port used for SercosIII/UDP\00", align 1
@.str.228 = private unnamed_addr constant [45 x i8] c"UDP port used by SercosIII to transport data\00", align 1
@global_network_udp_port_sercosiii = internal global i32 8755, align 4
@.str.229 = private unnamed_addr constant [34 x i8] c"network_udp_frame_first_sercosiii\00", align 1
@.str.230 = private unnamed_addr constant [55 x i8] c"openSAFETY frame 2 before frame 1 (SercosIII/UDP only)\00", align 1
@.str.231 = private unnamed_addr constant [89 x i8] c"In an SercosIII/UDP transport stream, openSAFETY frame 2 will be expected before frame 1\00", align 1
@global_siii_udp_frame2_first = internal global i8 0, align 1
@.str.232 = private unnamed_addr constant [24 x i8] c"network_udp_frame_first\00", align 1
@.str.233 = private unnamed_addr constant [45 x i8] c"openSAFETY frame 2 before frame 1 (UDP only)\00", align 1
@.str.234 = private unnamed_addr constant [76 x i8] c"In the transport stream, openSAFETY frame 2 will be expected before frame 1\00", align 1
@global_udp_frame2_first = internal global i8 0, align 1
@.str.235 = private unnamed_addr constant [17 x i8] c"mbtcp_big_endian\00", align 1
@.str.236 = private unnamed_addr constant [41 x i8] c"Big Endian Word Coding (Modbus/TCP only)\00", align 1
@.str.237 = private unnamed_addr constant [95 x i8] c"Modbus/TCP words can be transcoded either big- or little endian. Default will be little endian\00", align 1
@global_mbtcp_big_endian = internal global i8 0, align 1
@.str.238 = private unnamed_addr constant [14 x i8] c"debug_verbose\00", align 1
@.str.239 = private unnamed_addr constant [44 x i8] c"openSAFETY print all dissection information\00", align 1
@.str.240 = private unnamed_addr constant [90 x i8] c"Enables additional information in the dissection for better debugging an openSAFETY trace\00", align 1
@global_opensafety_debug_verbose = internal global i8 0, align 1
@.str.241 = private unnamed_addr constant [11 x i8] c"enable_plk\00", align 1
@.str.242 = private unnamed_addr constant [12 x i8] c"enable_siii\00", align 1
@.str.243 = private unnamed_addr constant [12 x i8] c"enable_pnio\00", align 1
@.str.244 = private unnamed_addr constant [11 x i8] c"enable_udp\00", align 1
@.str.245 = private unnamed_addr constant [68 x i8] c"Enable heuristic dissection for openSAFETY over UDP encoded traffic\00", align 1
@global_enable_udp = internal global i8 1, align 1
@.str.246 = private unnamed_addr constant [13 x i8] c"enable_mbtcp\00", align 1
@.str.247 = private unnamed_addr constant [43 x i8] c"Enable heuristic dissection for Modbus/TCP\00", align 1
@global_enable_mbtcp = internal global i8 1, align 1
@.str.248 = private unnamed_addr constant [22 x i8] c"display_intergap_data\00", align 1
@.str.249 = private unnamed_addr constant [44 x i8] c"Display the data between openSAFETY packets\00", align 1
@global_display_intergap_data = internal global i8 0, align 1
@.str.250 = private unnamed_addr constant [19 x i8] c"classify_transport\00", align 1
@.str.251 = private unnamed_addr constant [64 x i8] c"Dissect packet based on transport method (EPL + SercosIII only)\00", align 1
@.str.252 = private unnamed_addr constant [73 x i8] c"SPDOs may only be found in cyclic data, SSDOs/SNMTS only in acyclic data\00", align 1
@global_classify_transport = internal global i8 1, align 1
@.str.253 = private unnamed_addr constant [28 x i8] c"Port used for UDP Transport\00", align 1
@.str.254 = private unnamed_addr constant [52 x i8] c"Port used by the openSAFETY over UDP data transport\00", align 1
@global_network_oss_udp_port = internal global i32 9877, align 4
@opensafety_udpdata_handle = internal global ptr null, align 8
@.str.255 = private unnamed_addr constant [24 x i8] c"opensafety_udptransport\00", align 1
@opensafety_udptransport_handle = internal global ptr null, align 8
@.str.256 = private unnamed_addr constant [17 x i8] c"opensafety_mbtcp\00", align 1
@opensafety_mbtcp_handle = internal global ptr null, align 8
@.str.257 = private unnamed_addr constant [16 x i8] c"opensafety_pnio\00", align 1
@opensafety_pnio_handle = internal global ptr null, align 8

; Function Attrs: null_pointer_is_valid sspstrong uwtable
define hidden void @proto_register_opensafety() #0 {
  %1 = alloca ptr, align 8
  %2 = alloca ptr, align 8
  %3 = alloca ptr, align 8
  call void @llvm.lifetime.start.p0(i64 8, ptr %1) #12
  call void @llvm.lifetime.start.p0(i64 8, ptr %2) #12
  call void @llvm.lifetime.start.p0(i64 8, ptr %3) #12
  %4 = call i32 @proto_register_protocol(ptr noundef @.str.204, ptr noundef @.str.204, ptr noundef @.str.205)
  store i32 %4, ptr @proto_opensafety, align 4
  %5 = load i32, ptr @proto_opensafety, align 4
  %6 = call ptr @prefs_register_protocol(i32 noundef %5, ptr noundef @apply_prefs)
  store ptr %6, ptr %1, align 8
  %7 = call i32 @proto_register_protocol(ptr noundef @.str.206, ptr noundef @.str.207, ptr noundef @.str.208)
  store i32 %7, ptr @proto_oss_udp_transport, align 4
  %8 = load i32, ptr @proto_oss_udp_transport, align 4
  %9 = call ptr @prefs_register_protocol(i32 noundef %8, ptr noundef @apply_prefs)
  store ptr %9, ptr %2, align 8
  %10 = load i32, ptr @proto_opensafety, align 4
  %11 = call ptr @register_heur_dissector_list_with_description(ptr noundef @.str.209, ptr noundef @.str.210, i32 noundef %10)
  store ptr %11, ptr @heur_opensafety_spdo_subdissector_list, align 8
  %12 = load i32, ptr @proto_opensafety, align 4
  call void @proto_register_field_array(i32 noundef %12, ptr noundef @proto_register_opensafety.hf, i32 noundef 81)
  call void @proto_register_subtree_array(ptr noundef @proto_register_opensafety.ett, i32 noundef 14)
  %13 = load i32, ptr @proto_oss_udp_transport, align 4
  call void @proto_register_field_array(i32 noundef %13, ptr noundef @proto_register_opensafety.hf_oss_udp_transport, i32 noundef 6)
  call void @proto_register_subtree_array(ptr noundef @proto_register_opensafety.ett_oss_udp, i32 noundef 1)
  %14 = call i32 @register_tap(ptr noundef @.str.205)
  store i32 %14, ptr @opensafety_tap, align 4
  %15 = load i32, ptr @proto_opensafety, align 4
  %16 = call ptr @expert_register_protocol(i32 noundef %15)
  store ptr %16, ptr %3, align 8
  %17 = load ptr, ptr %3, align 8
  call void @expert_register_field_array(ptr noundef %17, ptr noundef @proto_register_opensafety.ei, i32 noundef 16)
  %18 = load ptr, ptr %1, align 8
  call void @prefs_register_string_preference(ptr noundef %18, ptr noundef @.str.211, ptr noundef @.str.212, ptr noundef @.str.213, ptr noundef @global_scm_udid)
  %19 = load ptr, ptr %1, align 8
  call void @prefs_register_bool_preference(ptr noundef %19, ptr noundef @.str.214, ptr noundef @.str.215, ptr noundef @.str.216, ptr noundef @global_scm_udid_autoset)
  %20 = load ptr, ptr %1, align 8
  call void @prefs_register_string_preference(ptr noundef %20, ptr noundef @.str.217, ptr noundef @.str.218, ptr noundef @.str.219, ptr noundef @global_filter_nodes)
  %21 = load ptr, ptr %1, align 8
  call void @prefs_register_bool_preference(ptr noundef %21, ptr noundef @.str.220, ptr noundef @.str.221, ptr noundef @.str.222, ptr noundef @global_show_only_node_in_filter)
  %22 = load ptr, ptr %1, align 8
  call void @prefs_register_uint_preference(ptr noundef %22, ptr noundef @.str.223, ptr noundef @.str.224, ptr noundef @.str.225, i32 noundef 10, ptr noundef @global_network_udp_port)
  %23 = load ptr, ptr %1, align 8
  call void @prefs_register_uint_preference(ptr noundef %23, ptr noundef @.str.226, ptr noundef @.str.227, ptr noundef @.str.228, i32 noundef 10, ptr noundef @global_network_udp_port_sercosiii)
  %24 = load ptr, ptr %1, align 8
  call void @prefs_register_bool_preference(ptr noundef %24, ptr noundef @.str.229, ptr noundef @.str.230, ptr noundef @.str.231, ptr noundef @global_siii_udp_frame2_first)
  %25 = load ptr, ptr %1, align 8
  call void @prefs_register_bool_preference(ptr noundef %25, ptr noundef @.str.232, ptr noundef @.str.233, ptr noundef @.str.234, ptr noundef @global_udp_frame2_first)
  %26 = load ptr, ptr %1, align 8
  call void @prefs_register_bool_preference(ptr noundef %26, ptr noundef @.str.235, ptr noundef @.str.236, ptr noundef @.str.237, ptr noundef @global_mbtcp_big_endian)
  %27 = load ptr, ptr %1, align 8
  call void @prefs_register_bool_preference(ptr noundef %27, ptr noundef @.str.238, ptr noundef @.str.239, ptr noundef @.str.240, ptr noundef @global_opensafety_debug_verbose)
  %28 = load ptr, ptr %1, align 8
  call void @prefs_register_obsolete_preference(ptr noundef %28, ptr noundef @.str.241)
  %29 = load ptr, ptr %1, align 8
  call void @prefs_register_obsolete_preference(ptr noundef %29, ptr noundef @.str.242)
  %30 = load ptr, ptr %1, align 8
  call void @prefs_register_obsolete_preference(ptr noundef %30, ptr noundef @.str.243)
  %31 = load ptr, ptr %1, align 8
  call void @prefs_register_bool_preference(ptr noundef %31, ptr noundef @.str.244, ptr noundef @.str.245, ptr noundef @.str.245, ptr noundef @global_enable_udp)
  %32 = load ptr, ptr %1, align 8
  call void @prefs_register_bool_preference(ptr noundef %32, ptr noundef @.str.246, ptr noundef @.str.247, ptr noundef @.str.247, ptr noundef @global_enable_mbtcp)
  %33 = load ptr, ptr %1, align 8
  call void @prefs_register_bool_preference(ptr noundef %33, ptr noundef @.str.248, ptr noundef @.str.249, ptr noundef @.str.249, ptr noundef @global_display_intergap_data)
  %34 = load ptr, ptr %1, align 8
  call void @prefs_register_bool_preference(ptr noundef %34, ptr noundef @.str.250, ptr noundef @.str.251, ptr noundef @.str.252, ptr noundef @global_classify_transport)
  %35 = load ptr, ptr %2, align 8
  call void @prefs_register_uint_preference(ptr noundef %35, ptr noundef @.str.223, ptr noundef @.str.253, ptr noundef @.str.254, i32 noundef 10, ptr noundef @global_network_oss_udp_port)
  %36 = load i32, ptr @proto_opensafety, align 4
  %37 = call ptr @register_dissector(ptr noundef @.str.208, ptr noundef @dissect_opensafety_udpdata, i32 noundef %36)
  store ptr %37, ptr @opensafety_udpdata_handle, align 8
  %38 = load i32, ptr @proto_oss_udp_transport, align 4
  %39 = call ptr @register_dissector(ptr noundef @.str.255, ptr noundef @dissect_opensafety_udpdata, i32 noundef %38)
  store ptr %39, ptr @opensafety_udptransport_handle, align 8
  %40 = load i32, ptr @proto_opensafety, align 4
  %41 = call ptr @register_dissector(ptr noundef @.str.256, ptr noundef @dissect_opensafety_mbtcp, i32 noundef %40)
  store ptr %41, ptr @opensafety_mbtcp_handle, align 8
  %42 = load i32, ptr @proto_opensafety, align 4
  %43 = call ptr @register_dissector(ptr noundef @.str.257, ptr noundef @dissect_opensafety_pn_io, i32 noundef %42)
  store ptr %43, ptr @opensafety_pnio_handle, align 8
  %44 = load i32, ptr @proto_opensafety, align 4
  call void @register_conversation_table(i32 noundef %44, i1 noundef zeroext true, ptr noundef @opensafety_conversation_packet, ptr noundef @opensafety_endpoint_packet)
  call void @llvm.lifetime.end.p0(i64 8, ptr %3) #12
  call void @llvm.lifetime.end.p0(i64 8, ptr %2) #12
  call void @llvm.lifetime.end.p0(i64 8, ptr %1) #12
  ret void
}