; Function Attrs: null_pointer_is_valid sspstrong uwtable
define hidden void @proto_register_opensafety() local_unnamed_addr #0 {
  %1 = tail call i32 @proto_register_protocol(ptr noundef nonnull @.str.204, ptr noundef nonnull @.str.204, ptr noundef nonnull @.str.205)
  store i32 %1, ptr @proto_opensafety, align 4
  %2 = tail call ptr @prefs_register_protocol(i32 noundef %1, ptr noundef nonnull @apply_prefs)
  %3 = tail call i32 @proto_register_protocol(ptr noundef nonnull @.str.206, ptr noundef nonnull @.str.207, ptr noundef nonnull @.str.208)
  store i32 %3, ptr @proto_oss_udp_transport, align 4
  %4 = tail call ptr @prefs_register_protocol(i32 noundef %3, ptr noundef nonnull @apply_prefs)
  %5 = load i32, ptr @proto_opensafety, align 4
  %6 = tail call ptr @register_heur_dissector_list_with_description(ptr noundef nonnull @.str.209, ptr noundef nonnull @.str.210, i32 noundef %5)
  store ptr %6, ptr @heur_opensafety_spdo_subdissector_list, align 8
  %7 = load i32, ptr @proto_opensafety, align 4
  tail call void @proto_register_field_array(i32 noundef %7, ptr noundef nonnull @proto_register_opensafety.hf, i32 noundef 81)
  tail call void @proto_register_subtree_array(ptr noundef nonnull @proto_register_opensafety.ett, i32 noundef 14)
  %8 = load i32, ptr @proto_oss_udp_transport, align 4
  tail call void @proto_register_field_array(i32 noundef %8, ptr noundef nonnull @proto_register_opensafety.hf_oss_udp_transport, i32 noundef 6)
  tail call void @proto_register_subtree_array(ptr noundef nonnull @proto_register_opensafety.ett_oss_udp, i32 noundef 1)
  %9 = tail call i32 @register_tap(ptr noundef nonnull @.str.205)
  store i32 %9, ptr @opensafety_tap, align 4
  %10 = load i32, ptr @proto_opensafety, align 4
  %11 = tail call ptr @expert_register_protocol(i32 noundef %10)
  tail call void @expert_register_field_array(ptr noundef %11, ptr noundef nonnull @proto_register_opensafety.ei, i32 noundef 16)
  tail call void @prefs_register_string_preference(ptr noundef %2, ptr noundef nonnull @.str.211, ptr noundef nonnull @.str.212, ptr noundef nonnull @.str.213, ptr noundef nonnull @global_scm_udid)
  tail call void @prefs_register_bool_preference(ptr noundef %2, ptr noundef nonnull @.str.214, ptr noundef nonnull @.str.215, ptr noundef nonnull @.str.216, ptr noundef nonnull @global_scm_udid_autoset)
  tail call void @prefs_register_string_preference(ptr noundef %2, ptr noundef nonnull @.str.217, ptr noundef nonnull @.str.218, ptr noundef nonnull @.str.219, ptr noundef nonnull @global_filter_nodes)
  tail call void @prefs_register_bool_preference(ptr noundef %2, ptr noundef nonnull @.str.220, ptr noundef nonnull @.str.221, ptr noundef nonnull @.str.222, ptr noundef nonnull @global_show_only_node_in_filter)
  tail call void @prefs_register_uint_preference(ptr noundef %2, ptr noundef nonnull @.str.223, ptr noundef nonnull @.str.224, ptr noundef nonnull @.str.225, i32 noundef 10, ptr noundef nonnull @global_network_udp_port)
  tail call void @prefs_register_uint_preference(ptr noundef %2, ptr noundef nonnull @.str.226, ptr noundef nonnull @.str.227, ptr noundef nonnull @.str.228, i32 noundef 10, ptr noundef nonnull @global_network_udp_port_sercosiii)
  tail call void @prefs_register_bool_preference(ptr noundef %2, ptr noundef nonnull @.str.229, ptr noundef nonnull @.str.230, ptr noundef nonnull @.str.231, ptr noundef nonnull @global_siii_udp_frame2_first)
  tail call void @prefs_register_bool_preference(ptr noundef %2, ptr noundef nonnull @.str.232, ptr noundef nonnull @.str.233, ptr noundef nonnull @.str.234, ptr noundef nonnull @global_udp_frame2_first)
  tail call void @prefs_register_bool_preference(ptr noundef %2, ptr noundef nonnull @.str.235, ptr noundef nonnull @.str.236, ptr noundef nonnull @.str.237, ptr noundef nonnull @global_mbtcp_big_endian)
  tail call void @prefs_register_bool_preference(ptr noundef %2, ptr noundef nonnull @.str.238, ptr noundef nonnull @.str.239, ptr noundef nonnull @.str.240, ptr noundef nonnull @global_opensafety_debug_verbose)
  tail call void @prefs_register_obsolete_preference(ptr noundef %2, ptr noundef nonnull @.str.241)
  tail call void @prefs_register_obsolete_preference(ptr noundef %2, ptr noundef nonnull @.str.242)
  tail call void @prefs_register_obsolete_preference(ptr noundef %2, ptr noundef nonnull @.str.243)
  tail call void @prefs_register_bool_preference(ptr noundef %2, ptr noundef nonnull @.str.244, ptr noundef nonnull @.str.245, ptr noundef nonnull @.str.245, ptr noundef nonnull @global_enable_udp)
  tail call void @prefs_register_bool_preference(ptr noundef %2, ptr noundef nonnull @.str.246, ptr noundef nonnull @.str.247, ptr noundef nonnull @.str.247, ptr noundef nonnull @global_enable_mbtcp)
  tail call void @prefs_register_bool_preference(ptr noundef %2, ptr noundef nonnull @.str.248, ptr noundef nonnull @.str.249, ptr noundef nonnull @.str.249, ptr noundef nonnull @global_display_intergap_data)
  tail call void @prefs_register_bool_preference(ptr noundef %2, ptr noundef nonnull @.str.250, ptr noundef nonnull @.str.251, ptr noundef nonnull @.str.252, ptr noundef nonnull @global_classify_transport)
  tail call void @prefs_register_uint_preference(ptr noundef %4, ptr noundef nonnull @.str.223, ptr noundef nonnull @.str.253, ptr noundef nonnull @.str.254, i32 noundef 10, ptr noundef nonnull @global_network_oss_udp_port)
  %12 = load i32, ptr @proto_opensafety, align 4
  %13 = tail call ptr @register_dissector(ptr noundef nonnull @.str.208, ptr noundef nonnull @dissect_opensafety_udpdata, i32 noundef %12)
  store ptr %13, ptr @opensafety_udpdata_handle, align 8
  %14 = load i32, ptr @proto_oss_udp_transport, align 4
  %15 = tail call ptr @register_dissector(ptr noundef nonnull @.str.255, ptr noundef nonnull @dissect_opensafety_udpdata, i32 noundef %14)
  store ptr %15, ptr @opensafety_udptransport_handle, align 8
  %16 = load i32, ptr @proto_opensafety, align 4
  %17 = tail call ptr @register_dissector(ptr noundef nonnull @.str.256, ptr noundef nonnull @dissect_opensafety_mbtcp, i32 noundef %16)
  store ptr %17, ptr @opensafety_mbtcp_handle, align 8
  %18 = load i32, ptr @proto_opensafety, align 4
  %19 = tail call ptr @register_dissector(ptr noundef nonnull @.str.257, ptr noundef nonnull @dissect_opensafety_pn_io, i32 noundef %18)
  store ptr %19, ptr @opensafety_pnio_handle, align 8
  %20 = load i32, ptr @proto_opensafety, align 4
  tail call void @register_conversation_table(i32 noundef %20, i1 noundef zeroext true, ptr noundef nonnull @opensafety_conversation_packet, ptr noundef nonnull @opensafety_endpoint_packet)
  ret void
}